target datalayout = "e-m:e-p270:32:32-p271:32:32-p272:64:64-i64:64-i128:128-f80:128-n8:16:32:64-S128"
target triple = "x86_64-pc-linux-gnu"

%struct.Vec_Int_t_ = type { i32, i32, ptr }

@Exp_Truth6.Truth6 = internal global [6 x i64] [i64 -6148914691236517206, i64 -3689348814741910324, i64 -1085102592571150096, i64 -71777214294589696, i64 -281470681808896, i64 -4294967296], align 16

; Function Attrs: inlinehint nounwind uwtable
define internal i32 @Vec_IntSize(ptr noundef %0) #5 {
  %2 = alloca ptr, align 8
  store ptr %0, ptr %2, align 8, !tbaa !98
  %3 = load ptr, ptr %2, align 8, !tbaa !98
  %4 = getelementptr inbounds nuw %struct.Vec_Int_t_, ptr %3, i32 0, i32 1
  %5 = load i32, ptr %4, align 4, !tbaa !100
  ret i32 %5
}

; Function Attrs: inlinehint nounwind uwtable
define internal i32 @Vec_IntEntryLast(ptr noundef %0) #5 {
  %2 = alloca ptr, align 8
  store ptr %0, ptr %2, align 8, !tbaa !98
  %3 = load ptr, ptr %2, align 8, !tbaa !98
  %4 = getelementptr inbounds nuw %struct.Vec_Int_t_, ptr %3, i32 0, i32 2
  %5 = load ptr, ptr %4, align 8, !tbaa !99
  %6 = load ptr, ptr %2, align 8, !tbaa !98
  %7 = getelementptr inbounds nuw %struct.Vec_Int_t_, ptr %6, i32 0, i32 1
  %8 = load i32, ptr %7, align 4, !tbaa !100
  %9 = sub nsw i32 %8, 1
  %10 = sext i32 %9 to i64
  %11 = getelementptr inbounds i32, ptr %5, i64 %10
  %12 = load i32, ptr %11, align 4, !tbaa !79
  ret i32 %12
}

; Function Attrs: inlinehint nounwind uwtable
define internal i64 @Exp_Truth6Lit(i32 noundef %0, i32 noundef %1, ptr noundef %2, ptr noundef %3) #5 {
  %5 = alloca i64, align 8
  %6 = alloca i32, align 4
  %7 = alloca i32, align 4
  %8 = alloca ptr, align 8
  %9 = alloca ptr, align 8
  store i32 %0, ptr %6, align 4, !tbaa !79
  store i32 %1, ptr %7, align 4, !tbaa !79
  store ptr %2, ptr %8, align 8, !tbaa !80
  store ptr %3, ptr %9, align 8, !tbaa !80
  %10 = load i32, ptr %7, align 4, !tbaa !79
  %11 = icmp eq i32 %10, -1
  br i1 %11, label %12, label %13

12:                                               ; preds = %4
  store i64 0, ptr %5, align 8
  br label %68

13:                                               ; preds = %4
  %14 = load i32, ptr %7, align 4, !tbaa !79
  %15 = icmp eq i32 %14, -2
  br i1 %15, label %16, label %17

16:                                               ; preds = %13
  store i64 -1, ptr %5, align 8
  br label %68

17:                                               ; preds = %13
  %18 = load i32, ptr %7, align 4, !tbaa !79
  %19 = load i32, ptr %6, align 4, !tbaa !79
  %20 = mul nsw i32 2, %19
  %21 = icmp slt i32 %18, %20
  br i1 %21, label %22, label %43

22:                                               ; preds = %17
  %23 = load i32, ptr %7, align 4, !tbaa !79
  %24 = and i32 %23, 1
  %25 = icmp ne i32 %24, 0
  br i1 %25, label %26, label %34

26:                                               ; preds = %22
  %27 = load ptr, ptr %8, align 8, !tbaa !80
  %28 = load i32, ptr %7, align 4, !tbaa !79
  %29 = sdiv i32 %28, 2
  %30 = sext i32 %29 to i64
  %31 = getelementptr inbounds i64, ptr %27, i64 %30
  %32 = load i64, ptr %31, align 8, !tbaa !87
  %33 = xor i64 %32, -1
  br label %41

34:                                               ; preds = %22
  %35 = load ptr, ptr %8, align 8, !tbaa !80
  %36 = load i32, ptr %7, align 4, !tbaa !79
  %37 = sdiv i32 %36, 2
  %38 = sext i32 %37 to i64
  %39 = getelementptr inbounds i64, ptr %35, i64 %38
  %40 = load i64, ptr %39, align 8, !tbaa !87
  br label %41

41:                                               ; preds = %34, %26
  %42 = phi i64 [ %33, %26 ], [ %40, %34 ]
  store i64 %42, ptr %5, align 8
  br label %68

43:                                               ; preds = %17
  %44 = load i32, ptr %7, align 4, !tbaa !79
  %45 = and i32 %44, 1
  %46 = icmp ne i32 %45, 0
  br i1 %46, label %47, label %57

47:                                               ; preds = %43
  %48 = load ptr, ptr %9, align 8, !tbaa !80
  %49 = load i32, ptr %7, align 4, !tbaa !79
  %50 = sdiv i32 %49, 2
  %51 = load i32, ptr %6, align 4, !tbaa !79
  %52 = sub nsw i32 %50, %51
  %53 = sext i32 %52 to i64
  %54 = getelementptr inbounds i64, ptr %48, i64 %53
  %55 = load i64, ptr %54, align 8, !tbaa !87
  %56 = xor i64 %55, -1
  br label %66

57:                                               ; preds = %43
  %58 = load ptr, ptr %9, align 8, !tbaa !80
  %59 = load i32, ptr %7, align 4, !tbaa !79
  %60 = sdiv i32 %59, 2
  %61 = load i32, ptr %6, align 4, !tbaa !79
  %62 = sub nsw i32 %60, %61
  %63 = sext i32 %62 to i64
  %64 = getelementptr inbounds i64, ptr %58, i64 %63
  %65 = load i64, ptr %64, align 8, !tbaa !87
  br label %66

66:                                               ; preds = %57, %47
  %67 = phi i64 [ %56, %47 ], [ %65, %57 ]
  store i64 %67, ptr %5, align 8
  br label %68

68:                                               ; preds = %66, %41, %16, %12
  %69 = load i64, ptr %5, align 8
  ret i64 %69
}

; Function Attrs: inlinehint nounwind uwtable
define internal i32 @Vec_IntEntry(ptr noundef %0, i32 noundef %1) #5 {
  %3 = alloca ptr, align 8
  %4 = alloca i32, align 4
  store ptr %0, ptr %3, align 8, !tbaa !98
  store i32 %1, ptr %4, align 4, !tbaa !79
  %5 = load ptr, ptr %3, align 8, !tbaa !98
  %6 = getelementptr inbounds nuw %struct.Vec_Int_t_, ptr %5, i32 0, i32 2
  %7 = load ptr, ptr %6, align 8, !tbaa !99
  %8 = load i32, ptr %4, align 4, !tbaa !79
  %9 = sext i32 %8 to i64
  %10 = getelementptr inbounds i32, ptr %7, i64 %9
  %11 = load i32, ptr %10, align 4, !tbaa !79
  ret i32 %11
}

; Function Attrs: inlinehint nounwind uwtable
define internal i32 @Exp_NodeNum(ptr noundef %0) #5 {
  %2 = alloca ptr, align 8
  store ptr %0, ptr %2, align 8, !tbaa !98
  %3 = load ptr, ptr %2, align 8, !tbaa !98
  %4 = call i32 @Vec_IntSize(ptr noundef %3)
  %5 = sdiv i32 %4, 2
  ret i32 %5
}

; Function Attrs: inlinehint nounwind uwtable
define internal i64 @Exp_Truth6(i32 noundef %0, ptr noundef %1, ptr noundef %2) #5 {
  %4 = alloca i32, align 4
  %5 = alloca ptr, align 8
  %6 = alloca ptr, align 8
  %7 = alloca ptr, align 8
  %8 = alloca i64, align 8
  %9 = alloca i32, align 4
  store i32 %0, ptr %4, align 4, !tbaa !79
  store ptr %1, ptr %5, align 8, !tbaa !98
  store ptr %2, ptr %6, align 8, !tbaa !80
  call void @llvm.lifetime.start.p0(i64 8, ptr %7) #12
  call void @llvm.lifetime.start.p0(i64 8, ptr %8) #12
  call void @llvm.lifetime.start.p0(i64 4, ptr %9) #12
  %10 = load ptr, ptr %6, align 8, !tbaa !80
  %11 = icmp eq ptr %10, null
  br i1 %11, label %12, label %13

12:                                               ; preds = %3
  store ptr @Exp_Truth6.Truth6, ptr %6, align 8, !tbaa !80
  br label %13

13:                                               ; preds = %12, %3
  %14 = load ptr, ptr %5, align 8, !tbaa !98
  %15 = call i32 @Exp_NodeNum(ptr noundef %14)
  %16 = sext i32 %15 to i64
  %17 = call noalias ptr @calloc(i64 noundef %16, i64 noundef 8) #13
  store ptr %17, ptr %7, align 8, !tbaa !80
  store i32 0, ptr %9, align 4, !tbaa !79
  br label %18

18:                                               ; preds = %47, %13
  %19 = load i32, ptr %9, align 4, !tbaa !79
  %20 = load ptr, ptr %5, align 8, !tbaa !98
  %21 = call i32 @Exp_NodeNum(ptr noundef %20)
  %22 = icmp slt i32 %19, %21
  br i1 %22, label %23, label %50

23:                                               ; preds = %18
  %24 = load i32, ptr %4, align 4, !tbaa !79
  %25 = load ptr, ptr %5, align 8, !tbaa !98
  %26 = load i32, ptr %9, align 4, !tbaa !79
  %27 = mul nsw i32 2, %26
  %28 = add nsw i32 %27, 0
  %29 = call i32 @Vec_IntEntry(ptr noundef %25, i32 noundef %28)
  %30 = load ptr, ptr %6, align 8, !tbaa !80
  %31 = load ptr, ptr %7, align 8, !tbaa !80
  %32 = call i64 @Exp_Truth6Lit(i32 noundef %24, i32 noundef %29, ptr noundef %30, ptr noundef %31)
  %33 = load i32, ptr %4, align 4, !tbaa !79
  %34 = load ptr, ptr %5, align 8, !tbaa !98
  %35 = load i32, ptr %9, align 4, !tbaa !79
  %36 = mul nsw i32 2, %35
  %37 = add nsw i32 %36, 1
  %38 = call i32 @Vec_IntEntry(ptr noundef %34, i32 noundef %37)
  %39 = load ptr, ptr %6, align 8, !tbaa !80
  %40 = load ptr, ptr %7, align 8, !tbaa !80
  %41 = call i64 @Exp_Truth6Lit(i32 noundef %33, i32 noundef %38, ptr noundef %39, ptr noundef %40)
  %42 = and i64 %32, %41
  %43 = load ptr, ptr %7, align 8, !tbaa !80
  %44 = load i32, ptr %9, align 4, !tbaa !79
  %45 = sext i32 %44 to i64
  %46 = getelementptr inbounds i64, ptr %43, i64 %45
  store i64 %42, ptr %46, align 8, !tbaa !87
  br label %47

47:                                               ; preds = %23
  %48 = load i32, ptr %9, align 4, !tbaa !79
  %49 = add nsw i32 %48, 1
  store i32 %49, ptr %9, align 4, !tbaa !79
  br label %18, !llvm.loop !346

50:                                               ; preds = %18
  %51 = load i32, ptr %4, align 4, !tbaa !79
  %52 = load ptr, ptr %5, align 8, !tbaa !98
  %53 = call i32 @Vec_IntEntryLast(ptr noundef %52)
  %54 = load ptr, ptr %6, align 8, !tbaa !80
  %55 = load ptr, ptr %7, align 8, !tbaa !80
  %56 = call i64 @Exp_Truth6Lit(i32 noundef %51, i32 noundef %53, ptr noundef %54, ptr noundef %55)
  store i64 %56, ptr %8, align 8, !tbaa !87
  %57 = load ptr, ptr %7, align 8, !tbaa !80
  %58 = icmp ne ptr %57, null
  br i1 %58, label %59, label %61

59:                                               ; preds = %50
  %60 = load ptr, ptr %7, align 8, !tbaa !80
  call void @free(ptr noundef %60) #12
  store ptr null, ptr %7, align 8, !tbaa !80
  br label %62

61:                                               ; preds = %50
  br label %62

62:                                               ; preds = %61, %59
  %63 = load i64, ptr %8, align 8, !tbaa !87
  call void @llvm.lifetime.end.p0(i64 4, ptr %9) #12
  call void @llvm.lifetime.end.p0(i64 8, ptr %8) #12
  call void @llvm.lifetime.end.p0(i64 8, ptr %7) #12
  ret i64 %63
}