; Function Attrs: inlinehint nounwind memory(readwrite, argmem: read) uwtable
define internal fastcc i64 @Exp_Truth6(i32 noundef %0, ptr noundef readonly captures(none) %1, ptr noundef nonnull readonly captures(none) %2) unnamed_addr #18 {
  %4 = getelementptr i8, ptr %1, i64 4
  %.val25 = load i32, ptr %4, align 4, !tbaa !85
  %5 = sdiv i32 %.val25, 2
  %6 = sext i32 %5 to i64
  %7 = tail call noalias ptr @calloc(i64 noundef %6, i64 noundef 8) #24
  %8 = icmp sgt i32 %.val25, 1
  %9 = getelementptr i8, ptr %1, i64 8
  %.val24 = load ptr, ptr %9, align 8, !tbaa !84
  br i1 %8, label %.lr.ph, label %._crit_edge

.lr.ph:                                           ; preds = %3
  %10 = shl nsw i32 %0, 1
  %wide.trip.count = zext nneg i32 %5 to i64
  br label %11

11:                                               ; preds = %.lr.ph, %Exp_Truth6Lit.exit31
  %indvars.iv = phi i64 [ 0, %.lr.ph ], [ %indvars.iv.next, %Exp_Truth6Lit.exit31 ]
  %12 = shl nuw nsw i64 %indvars.iv, 1
  %13 = getelementptr inbounds nuw i32, ptr %.val24, i64 %12
  %14 = load i32, ptr %13, align 4, !tbaa !96
  switch i32 %14, label %16 [
    i32 -1, label %Exp_Truth6Lit.exit
    i32 -2, label %15
  ]

15:                                               ; preds = %11
  br label %Exp_Truth6Lit.exit

16:                                               ; preds = %11
  %17 = icmp slt i32 %14, %10
  %18 = and i32 %14, 1
  %.not17.i = icmp eq i32 %18, 0
  br i1 %17, label %19, label %31

19:                                               ; preds = %16
  br i1 %.not17.i, label %26, label %20

20:                                               ; preds = %19
  %21 = sdiv i32 %14, 2
  %22 = sext i32 %21 to i64
  %23 = getelementptr inbounds i64, ptr %2, i64 %22
  %24 = load i64, ptr %23, align 8, !tbaa !73
  %25 = xor i64 %24, -1
  br label %Exp_Truth6Lit.exit

26:                                               ; preds = %19
  %27 = ashr exact i32 %14, 1
  %28 = sext i32 %27 to i64
  %29 = getelementptr inbounds i64, ptr %2, i64 %28
  %30 = load i64, ptr %29, align 8, !tbaa !73
  br label %Exp_Truth6Lit.exit

31:                                               ; preds = %16
  br i1 %.not17.i, label %39, label %32

32:                                               ; preds = %31
  %33 = sdiv i32 %14, 2
  %34 = sub nsw i32 %33, %0
  %35 = sext i32 %34 to i64
  %36 = getelementptr inbounds i64, ptr %7, i64 %35
  %37 = load i64, ptr %36, align 8, !tbaa !73
  %38 = xor i64 %37, -1
  br label %Exp_Truth6Lit.exit

39:                                               ; preds = %31
  %40 = ashr exact i32 %14, 1
  %41 = sub nsw i32 %40, %0
  %42 = sext i32 %41 to i64
  %43 = getelementptr inbounds i64, ptr %7, i64 %42
  %44 = load i64, ptr %43, align 8, !tbaa !73
  br label %Exp_Truth6Lit.exit

Exp_Truth6Lit.exit:                               ; preds = %11, %15, %20, %26, %32, %39
  %.0.i = phi i64 [ -1, %15 ], [ 0, %11 ], [ %25, %20 ], [ %30, %26 ], [ %38, %32 ], [ %44, %39 ]
  %45 = or disjoint i64 %12, 1
  %46 = getelementptr inbounds nuw i32, ptr %.val24, i64 %45
  %47 = load i32, ptr %46, align 4, !tbaa !96
  switch i32 %47, label %49 [
    i32 -1, label %Exp_Truth6Lit.exit31
    i32 -2, label %48
  ]

48:                                               ; preds = %Exp_Truth6Lit.exit
  br label %Exp_Truth6Lit.exit31

49:                                               ; preds = %Exp_Truth6Lit.exit
  %50 = icmp slt i32 %47, %10
  %51 = and i32 %47, 1
  %.not17.i30 = icmp eq i32 %51, 0
  br i1 %50, label %52, label %64

52:                                               ; preds = %49
  br i1 %.not17.i30, label %59, label %53

53:                                               ; preds = %52
  %54 = sdiv i32 %47, 2
  %55 = sext i32 %54 to i64
  %56 = getelementptr inbounds i64, ptr %2, i64 %55
  %57 = load i64, ptr %56, align 8, !tbaa !73
  %58 = xor i64 %57, -1
  br label %Exp_Truth6Lit.exit31

59:                                               ; preds = %52
  %60 = ashr exact i32 %47, 1
  %61 = sext i32 %60 to i64
  %62 = getelementptr inbounds i64, ptr %2, i64 %61
  %63 = load i64, ptr %62, align 8, !tbaa !73
  br label %Exp_Truth6Lit.exit31

64:                                               ; preds = %49
  br i1 %.not17.i30, label %72, label %65

65:                                               ; preds = %64
  %66 = sdiv i32 %47, 2
  %67 = sub nsw i32 %66, %0
  %68 = sext i32 %67 to i64
  %69 = getelementptr inbounds i64, ptr %7, i64 %68
  %70 = load i64, ptr %69, align 8, !tbaa !73
  %71 = xor i64 %70, -1
  br label %Exp_Truth6Lit.exit31

72:                                               ; preds = %64
  %73 = ashr exact i32 %47, 1
  %74 = sub nsw i32 %73, %0
  %75 = sext i32 %74 to i64
  %76 = getelementptr inbounds i64, ptr %7, i64 %75
  %77 = load i64, ptr %76, align 8, !tbaa !73
  br label %Exp_Truth6Lit.exit31

Exp_Truth6Lit.exit31:                             ; preds = %Exp_Truth6Lit.exit, %48, %53, %59, %65, %72
  %.0.i29 = phi i64 [ -1, %48 ], [ 0, %Exp_Truth6Lit.exit ], [ %58, %53 ], [ %63, %59 ], [ %71, %65 ], [ %77, %72 ]
  %78 = and i64 %.0.i29, %.0.i
  %79 = getelementptr inbounds nuw i64, ptr %7, i64 %indvars.iv
  store i64 %78, ptr %79, align 8, !tbaa !73
  %indvars.iv.next = add nuw nsw i64 %indvars.iv, 1
  %exitcond.not = icmp eq i64 %indvars.iv.next, %wide.trip.count
  br i1 %exitcond.not, label %._crit_edge, label %11, !llvm.loop !321

._crit_edge:                                      ; preds = %Exp_Truth6Lit.exit31, %3
  %80 = sext i32 %.val25 to i64
  %81 = getelementptr i32, ptr %.val24, i64 %80
  %82 = getelementptr i8, ptr %81, i64 -4
  %83 = load i32, ptr %82, align 4, !tbaa !96
  switch i32 %83, label %85 [
    i32 -1, label %Exp_Truth6Lit.exit34
    i32 -2, label %84
  ]

84:                                               ; preds = %._crit_edge
  br label %Exp_Truth6Lit.exit34

85:                                               ; preds = %._crit_edge
  %86 = shl nsw i32 %0, 1
  %87 = icmp slt i32 %83, %86
  %88 = and i32 %83, 1
  %.not17.i33 = icmp eq i32 %88, 0
  br i1 %87, label %89, label %101

89:                                               ; preds = %85
  br i1 %.not17.i33, label %96, label %90

90:                                               ; preds = %89
  %91 = sdiv i32 %83, 2
  %92 = sext i32 %91 to i64
  %93 = getelementptr inbounds i64, ptr %2, i64 %92
  %94 = load i64, ptr %93, align 8, !tbaa !73
  %95 = xor i64 %94, -1
  br label %Exp_Truth6Lit.exit34

96:                                               ; preds = %89
  %97 = ashr exact i32 %83, 1
  %98 = sext i32 %97 to i64
  %99 = getelementptr inbounds i64, ptr %2, i64 %98
  %100 = load i64, ptr %99, align 8, !tbaa !73
  br label %Exp_Truth6Lit.exit34

101:                                              ; preds = %85
  br i1 %.not17.i33, label %109, label %102

102:                                              ; preds = %101
  %103 = sdiv i32 %83, 2
  %104 = sub nsw i32 %103, %0
  %105 = sext i32 %104 to i64
  %106 = getelementptr inbounds i64, ptr %7, i64 %105
  %107 = load i64, ptr %106, align 8, !tbaa !73
  %108 = xor i64 %107, -1
  br label %Exp_Truth6Lit.exit34.thread

109:                                              ; preds = %101
  %110 = ashr exact i32 %83, 1
  %111 = sub nsw i32 %110, %0
  %112 = sext i32 %111 to i64
  %113 = getelementptr inbounds i64, ptr %7, i64 %112
  %114 = load i64, ptr %113, align 8, !tbaa !73
  br label %Exp_Truth6Lit.exit34.thread

Exp_Truth6Lit.exit34:                             ; preds = %._crit_edge, %84, %90, %96
  %.0.i32 = phi i64 [ -1, %84 ], [ 0, %._crit_edge ], [ %95, %90 ], [ %100, %96 ]
  %.not = icmp eq ptr %7, null
  br i1 %.not, label %115, label %Exp_Truth6Lit.exit34.thread

Exp_Truth6Lit.exit34.thread:                      ; preds = %109, %102, %Exp_Truth6Lit.exit34
  %.0.i3237 = phi i64 [ %.0.i32, %Exp_Truth6Lit.exit34 ], [ %114, %109 ], [ %108, %102 ]
  tail call void @free(ptr noundef nonnull %7) #25
  br label %115

115:                                              ; preds = %Exp_Truth6Lit.exit34, %Exp_Truth6Lit.exit34.thread
  %.0.i3238 = phi i64 [ %.0.i32, %Exp_Truth6Lit.exit34 ], [ %.0.i3237, %Exp_Truth6Lit.exit34.thread ]
  ret i64 %.0.i3238
}